target datalayout = "e-m:e-p270:32:32-p271:32:32-p272:64:64-i64:64-i128:128-f80:128-n8:16:32:64-S128"
target triple = "x86_64-pc-linux-gnu"

%struct._zend_array = type { %struct._zend_refcounted_h, %union.anon.4, i32, %union.anon.6, i32, i32, i32, i32, i64, ptr }
%struct._zend_refcounted_h = type { i32, %union.anon.3 }
%union.anon.3 = type { i32 }
%union.anon.4 = type { i32 }
%union.anon.6 = type { ptr }
%struct._phpdbg_watch_element = type { i32, ptr, i8, ptr, ptr, %struct._zend_array, ptr, ptr, ptr, %union.anon.29 }
%union.anon.29 = type { %struct._zend_array }

; Function Attrs: nounwind uwtable
define hidden void @phpdbg_free_watch_element(ptr noundef %0) #0 {
  %2 = alloca ptr, align 8
  %3 = alloca ptr, align 8
  %4 = alloca i32, align 4
  %5 = alloca i32, align 4
  %6 = alloca i32, align 4
  %7 = alloca i32, align 4
  %8 = alloca ptr, align 8
  %9 = alloca ptr, align 8
  %10 = alloca ptr, align 8
  store ptr %0, ptr %10, align 8
  %11 = load ptr, ptr %10, align 8
  %12 = getelementptr inbounds %struct._phpdbg_watch_element, ptr %11, i32 0, i32 8
  %13 = load ptr, ptr %12, align 8
  store ptr %13, ptr %8, align 8
  %14 = load ptr, ptr %8, align 8
  %15 = getelementptr inbounds %struct._zend_refcounted_h, ptr %14, i32 0, i32 1
  %16 = load i32, ptr %15, align 4
  store i32 %16, ptr %6, align 4
  %17 = load i32, ptr %6, align 4
  %18 = and i32 %17, 1008
  %19 = and i32 %18, 64
  %20 = icmp ne i32 %19, 0
  br i1 %20, label %44, label %21

21:                                               ; preds = %1
  %22 = load ptr, ptr %8, align 8
  store ptr %22, ptr %3, align 8
  %23 = load ptr, ptr %3, align 8
  %24 = load i32, ptr %23, align 4
  %25 = icmp ugt i32 %24, 0
  call void @llvm.assume(i1 %25)
  %26 = load ptr, ptr %3, align 8
  %27 = load i32, ptr %26, align 4
  %28 = add i32 %27, -1
  store i32 %28, ptr %26, align 4
  %29 = icmp eq i32 %28, 0
  br i1 %29, label %30, label %43

30:                                               ; preds = %21
  %31 = load ptr, ptr %8, align 8
  %32 = getelementptr inbounds %struct._zend_refcounted_h, ptr %31, i32 0, i32 1
  %33 = load i32, ptr %32, align 4
  store i32 %33, ptr %7, align 4
  %34 = load i32, ptr %7, align 4
  %35 = and i32 %34, 1008
  %36 = and i32 %35, 128
  %37 = icmp ne i32 %36, 0
  br i1 %37, label %38, label %40

38:                                               ; preds = %30
  %39 = load ptr, ptr %8, align 8
  call void @free(ptr noundef %39) #11
  br label %42

40:                                               ; preds = %30
  %41 = load ptr, ptr %8, align 8
  call void @_efree(ptr noundef %41) #11
  br label %42

42:                                               ; preds = %40, %38
  br label %43

43:                                               ; preds = %42, %21
  br label %44

44:                                               ; preds = %43, %1
  %45 = load ptr, ptr %10, align 8
  %46 = getelementptr inbounds %struct._phpdbg_watch_element, ptr %45, i32 0, i32 7
  %47 = load ptr, ptr %46, align 8
  %48 = icmp ne ptr %47, null
  br i1 %48, label %49, label %84

49:                                               ; preds = %44
  %50 = load ptr, ptr %10, align 8
  %51 = getelementptr inbounds %struct._phpdbg_watch_element, ptr %50, i32 0, i32 7
  %52 = load ptr, ptr %51, align 8
  store ptr %52, ptr %9, align 8
  %53 = load ptr, ptr %9, align 8
  %54 = getelementptr inbounds %struct._zend_refcounted_h, ptr %53, i32 0, i32 1
  %55 = load i32, ptr %54, align 4
  store i32 %55, ptr %4, align 4
  %56 = load i32, ptr %4, align 4
  %57 = and i32 %56, 1008
  %58 = and i32 %57, 64
  %59 = icmp ne i32 %58, 0
  br i1 %59, label %83, label %60

60:                                               ; preds = %49
  %61 = load ptr, ptr %9, align 8
  store ptr %61, ptr %2, align 8
  %62 = load ptr, ptr %2, align 8
  %63 = load i32, ptr %62, align 4
  %64 = icmp ugt i32 %63, 0
  call void @llvm.assume(i1 %64)
  %65 = load ptr, ptr %2, align 8
  %66 = load i32, ptr %65, align 4
  %67 = add i32 %66, -1
  store i32 %67, ptr %65, align 4
  %68 = icmp eq i32 %67, 0
  br i1 %68, label %69, label %82

69:                                               ; preds = %60
  %70 = load ptr, ptr %9, align 8
  %71 = getelementptr inbounds %struct._zend_refcounted_h, ptr %70, i32 0, i32 1
  %72 = load i32, ptr %71, align 4
  store i32 %72, ptr %5, align 4
  %73 = load i32, ptr %5, align 4
  %74 = and i32 %73, 1008
  %75 = and i32 %74, 128
  %76 = icmp ne i32 %75, 0
  br i1 %76, label %77, label %79

77:                                               ; preds = %69
  %78 = load ptr, ptr %9, align 8
  call void @free(ptr noundef %78) #11
  br label %81

79:                                               ; preds = %69
  %80 = load ptr, ptr %9, align 8
  call void @_efree(ptr noundef %80) #11
  br label %81

81:                                               ; preds = %79, %77
  br label %82

82:                                               ; preds = %81, %60
  br label %83

83:                                               ; preds = %82, %49
  br label %84

84:                                               ; preds = %83, %44
  %85 = load ptr, ptr %10, align 8
  call void @_efree(ptr noundef %85)
  ret void
}