; Function Attrs: nounwind uwtable
define hidden void @phpdbg_free_watch_element(ptr noundef %0) local_unnamed_addr #0 {
  %2 = getelementptr inbounds i8, ptr %0, i64 112
  %3 = load ptr, ptr %2, align 8
  %4 = getelementptr inbounds i8, ptr %3, i64 4
  %5 = load i32, ptr %4, align 4
  %6 = and i32 %5, 64
  %.not = icmp eq i32 %6, 0
  br i1 %.not, label %7, label %16

7:                                                ; preds = %1
  %8 = load i32, ptr %3, align 4
  %9 = icmp ne i32 %8, 0
  tail call void @llvm.assume(i1 %9)
  %10 = add i32 %8, -1
  store i32 %10, ptr %3, align 4
  %11 = icmp eq i32 %10, 0
  br i1 %11, label %12, label %16

12:                                               ; preds = %7
  %13 = and i32 %5, 128
  %.not21 = icmp eq i32 %13, 0
  br i1 %.not21, label %15, label %14

14:                                               ; preds = %12
  tail call void @free(ptr noundef nonnull %3) #17
  br label %16

15:                                               ; preds = %12
  tail call void @_efree(ptr noundef nonnull %3) #17
  br label %16

16:                                               ; preds = %7, %15, %14, %1
  %17 = getelementptr inbounds i8, ptr %0, i64 104
  %18 = load ptr, ptr %17, align 8
  %.not22 = icmp eq ptr %18, null
  br i1 %.not22, label %32, label %19

19:                                               ; preds = %16
  %20 = getelementptr inbounds i8, ptr %18, i64 4
  %21 = load i32, ptr %20, align 4
  %22 = and i32 %21, 64
  %.not23 = icmp eq i32 %22, 0
  br i1 %.not23, label %23, label %32

23:                                               ; preds = %19
  %24 = load i32, ptr %18, align 4
  %25 = icmp ne i32 %24, 0
  tail call void @llvm.assume(i1 %25)
  %26 = add i32 %24, -1
  store i32 %26, ptr %18, align 4
  %27 = icmp eq i32 %26, 0
  br i1 %27, label %28, label %32

28:                                               ; preds = %23
  %29 = and i32 %21, 128
  %.not24 = icmp eq i32 %29, 0
  br i1 %.not24, label %31, label %30

30:                                               ; preds = %28
  tail call void @free(ptr noundef nonnull %18) #17
  br label %32

31:                                               ; preds = %28
  tail call void @_efree(ptr noundef nonnull %18) #17
  br label %32

32:                                               ; preds = %19, %30, %31, %23, %16
  tail call void @_efree(ptr noundef nonnull %0) #17
  ret void
}